; Function Attrs: mustprogress nofree norecurse nosync nounwind willreturn memory(readwrite, inaccessiblemem: none) uwtable
define dso_local void @sentinelDiscardReplyCallback(ptr noundef readonly captures(none) %0, ptr readnone captures(none) %1, ptr readnone captures(none) %2) #20 {
  %4 = getelementptr inbounds nuw i8, ptr %0, i64 288
  %5 = load ptr, ptr %4, align 8, !tbaa !126
  %.not = icmp eq ptr %5, null
  br i1 %.not, label %10, label %6

6:                                                ; preds = %3
  %7 = getelementptr inbounds nuw i8, ptr %5, i64 8
  %8 = load i32, ptr %7, align 8, !tbaa !118
  %9 = add nsw i32 %8, -1
  store i32 %9, ptr %7, align 8, !tbaa !118
  br label %10

10:                                               ; preds = %6, %3
  ret void
}